; ModuleID = '51/284.c'
source_filename = "51/284.c"
target datalayout = "e-m:e-p270:32:32-p271:32:32-p272:64:64-i64:64-f80:128-n8:16:32:64-S128"
target triple = "x86_64-pc-linux-gnu"

@.str = private unnamed_addr constant [3 x i8] c"%d\00", align 1
@.str.1 = private unnamed_addr constant [4 x i8] c"%d\0A\00", align 1
@.str.2 = private unnamed_addr constant [3 x i8] c"%c\00", align 1
@.str.3 = private unnamed_addr constant [2 x i8] c"\0A\00", align 1
@.str.4 = private unnamed_addr constant [3 x i8] c"NO\00", align 1

; Function Attrs: noinline nounwind uwtable
define dso_local i32 @main() #0 {
  %1 = alloca i32, align 4
  %2 = alloca [100 x i8], align 16
  %3 = alloca [100 x i8], align 16
  %4 = alloca i8, align 1
  %5 = alloca [100 x i32], align 16
  %6 = alloca i32, align 4
  %7 = alloca i32, align 4
  %8 = alloca i32, align 4
  %9 = alloca i32, align 4
  %10 = alloca i32, align 4
  %11 = alloca i32, align 4
  %12 = alloca i32, align 4
  store i32 0, i32* %1, align 4
  store i32 0, i32* %12, align 4
  %13 = call i32 (i8*, ...) @__isoc99_scanf(i8* getelementptr inbounds ([3 x i8], [3 x i8]* @.str, i64 0, i64 0), i32* %8)
  br label %14

14:                                               ; preds = %19, %0
  %15 = call i32 @getchar()
  %16 = trunc i32 %15 to i8
  store i8 %16, i8* %4, align 1
  %17 = sext i8 %16 to i32
  %18 = icmp ne i32 %17, 10
  br i1 %18, label %19, label %20

19:                                               ; preds = %14
  br label %14

20:                                               ; preds = %14
  %21 = getelementptr inbounds [100 x i8], [100 x i8]* %2, i64 0, i64 0
  %22 = call i32 (i8*, ...) bitcast (i32 (...)* @gets to i32 (i8*, ...)*)(i8* %21)
  %23 = getelementptr inbounds [100 x i8], [100 x i8]* %2, i64 0, i64 0
  %24 = call i64 @strlen(i8* %23) #3
  %25 = trunc i64 %24 to i32
  store i32 %25, i32* %7, align 4
  store i32 0, i32* %6, align 4
  br label %26

26:                                               ; preds = %36, %20
  %27 = load i32, i32* %6, align 4
  %28 = load i32, i32* %8, align 4
  %29 = add nsw i32 %27, %28
  %30 = load i32, i32* %7, align 4
  %31 = icmp sle i32 %29, %30
  br i1 %31, label %32, label %39

32:                                               ; preds = %26
  %33 = load i32, i32* %6, align 4
  %34 = sext i32 %33 to i64
  %35 = getelementptr inbounds [100 x i32], [100 x i32]* %5, i64 0, i64 %34
  store i32 0, i32* %35, align 4
  br label %36

36:                                               ; preds = %32
  %37 = load i32, i32* %6, align 4
  %38 = add nsw i32 %37, 1
  store i32 %38, i32* %6, align 4
  br label %26

39:                                               ; preds = %26
  store i32 0, i32* %6, align 4
  br label %40

40:                                               ; preds = %123, %39
  %41 = load i32, i32* %6, align 4
  %42 = load i32, i32* %8, align 4
  %43 = add nsw i32 %41, %42
  %44 = load i32, i32* %7, align 4
  %45 = icmp sle i32 %43, %44
  br i1 %45, label %46, label %126

46:                                               ; preds = %40
  store i32 0, i32* %9, align 4
  br label %47

47:                                               ; preds = %61, %46
  %48 = load i32, i32* %9, align 4
  %49 = load i32, i32* %8, align 4
  %50 = icmp slt i32 %48, %49
  br i1 %50, label %51, label %64

51:                                               ; preds = %47
  %52 = load i32, i32* %6, align 4
  %53 = load i32, i32* %9, align 4
  %54 = add nsw i32 %52, %53
  %55 = sext i32 %54 to i64
  %56 = getelementptr inbounds [100 x i8], [100 x i8]* %2, i64 0, i64 %55
  %57 = load i8, i8* %56, align 1
  %58 = load i32, i32* %9, align 4
  %59 = sext i32 %58 to i64
  %60 = getelementptr inbounds [100 x i8], [100 x i8]* %3, i64 0, i64 %59
  store i8 %57, i8* %60, align 1
  br label %61

61:                                               ; preds = %51
  %62 = load i32, i32* %9, align 4
  %63 = add nsw i32 %62, 1
  store i32 %63, i32* %9, align 4
  br label %47

64:                                               ; preds = %47
  %65 = load i32, i32* %6, align 4
  %66 = add nsw i32 %65, 1
  store i32 %66, i32* %10, align 4
  br label %67

67:                                               ; preds = %107, %64
  %68 = load i32, i32* %10, align 4
  %69 = load i32, i32* %8, align 4
  %70 = add nsw i32 %68, %69
  %71 = load i32, i32* %7, align 4
  %72 = icmp sle i32 %70, %71
  br i1 %72, label %73, label %110

73:                                               ; preds = %67
  store i32 1, i32* %11, align 4
  store i32 0, i32* %9, align 4
  br label %74

74:                                               ; preds = %94, %73
  %75 = load i32, i32* %9, align 4
  %76 = load i32, i32* %8, align 4
  %77 = icmp slt i32 %75, %76
  br i1 %77, label %78, label %97

78:                                               ; preds = %74
  %79 = load i32, i32* %9, align 4
  %80 = sext i32 %79 to i64
  %81 = getelementptr inbounds [100 x i8], [100 x i8]* %3, i64 0, i64 %80
  %82 = load i8, i8* %81, align 1
  %83 = sext i8 %82 to i32
  %84 = load i32, i32* %10, align 4
  %85 = load i32, i32* %9, align 4
  %86 = add nsw i32 %84, %85
  %87 = sext i32 %86 to i64
  %88 = getelementptr inbounds [100 x i8], [100 x i8]* %2, i64 0, i64 %87
  %89 = load i8, i8* %88, align 1
  %90 = sext i8 %89 to i32
  %91 = icmp ne i32 %83, %90
  br i1 %91, label %92, label %93

92:                                               ; preds = %78
  store i32 0, i32* %11, align 4
  br label %97

93:                                               ; preds = %78
  br label %94

94:                                               ; preds = %93
  %95 = load i32, i32* %9, align 4
  %96 = add nsw i32 %95, 1
  store i32 %96, i32* %9, align 4
  br label %74

97:                                               ; preds = %92, %74
  %98 = load i32, i32* %11, align 4
  %99 = icmp ne i32 %98, 0
  br i1 %99, label %100, label %106

100:                                              ; preds = %97
  %101 = load i32, i32* %6, align 4
  %102 = sext i32 %101 to i64
  %103 = getelementptr inbounds [100 x i32], [100 x i32]* %5, i64 0, i64 %102
  %104 = load i32, i32* %103, align 4
  %105 = add nsw i32 %104, 1
  store i32 %105, i32* %103, align 4
  br label %106

106:                                              ; preds = %100, %97
  br label %107

107:                                              ; preds = %106
  %108 = load i32, i32* %10, align 4
  %109 = add nsw i32 %108, 1
  store i32 %109, i32* %10, align 4
  br label %67

110:                                              ; preds = %67
  %111 = load i32, i32* %6, align 4
  %112 = sext i32 %111 to i64
  %113 = getelementptr inbounds [100 x i32], [100 x i32]* %5, i64 0, i64 %112
  %114 = load i32, i32* %113, align 4
  %115 = load i32, i32* %12, align 4
  %116 = icmp sgt i32 %114, %115
  br i1 %116, label %117, label %122

117:                                              ; preds = %110
  %118 = load i32, i32* %6, align 4
  %119 = sext i32 %118 to i64
  %120 = getelementptr inbounds [100 x i32], [100 x i32]* %5, i64 0, i64 %119
  %121 = load i32, i32* %120, align 4
  store i32 %121, i32* %12, align 4
  br label %122

122:                                              ; preds = %117, %110
  br label %123

123:                                              ; preds = %122
  %124 = load i32, i32* %6, align 4
  %125 = add nsw i32 %124, 1
  store i32 %125, i32* %6, align 4
  br label %40

126:                                              ; preds = %40
  %127 = load i32, i32* %12, align 4
  %128 = icmp sgt i32 %127, 0
  br i1 %128, label %129, label %170

129:                                              ; preds = %126
  %130 = load i32, i32* %12, align 4
  %131 = add nsw i32 %130, 1
  %132 = call i32 (i8*, ...) @printf(i8* getelementptr inbounds ([4 x i8], [4 x i8]* @.str.1, i64 0, i64 0), i32 %131)
  store i32 0, i32* %6, align 4
  br label %133

133:                                              ; preds = %166, %129
  %134 = load i32, i32* %6, align 4
  %135 = load i32, i32* %8, align 4
  %136 = add nsw i32 %134, %135
  %137 = load i32, i32* %7, align 4
  %138 = icmp sle i32 %136, %137
  br i1 %138, label %139, label %169

139:                                              ; preds = %133
  %140 = load i32, i32* %6, align 4
  %141 = sext i32 %140 to i64
  %142 = getelementptr inbounds [100 x i32], [100 x i32]* %5, i64 0, i64 %141
  %143 = load i32, i32* %142, align 4
  %144 = load i32, i32* %12, align 4
  %145 = icmp eq i32 %143, %144
  br i1 %145, label %146, label %165

146:                                              ; preds = %139
  store i32 0, i32* %9, align 4
  br label %147

147:                                              ; preds = %160, %146
  %148 = load i32, i32* %9, align 4
  %149 = load i32, i32* %8, align 4
  %150 = icmp slt i32 %148, %149
  br i1 %150, label %151, label %163

151:                                              ; preds = %147
  %152 = load i32, i32* %6, align 4
  %153 = load i32, i32* %9, align 4
  %154 = add nsw i32 %152, %153
  %155 = sext i32 %154 to i64
  %156 = getelementptr inbounds [100 x i8], [100 x i8]* %2, i64 0, i64 %155
  %157 = load i8, i8* %156, align 1
  %158 = sext i8 %157 to i32
  %159 = call i32 (i8*, ...) @printf(i8* getelementptr inbounds ([3 x i8], [3 x i8]* @.str.2, i64 0, i64 0), i32 %158)
  br label %160

160:                                              ; preds = %151
  %161 = load i32, i32* %9, align 4
  %162 = add nsw i32 %161, 1
  store i32 %162, i32* %9, align 4
  br label %147

163:                                              ; preds = %147
  %164 = call i32 (i8*, ...) @printf(i8* getelementptr inbounds ([2 x i8], [2 x i8]* @.str.3, i64 0, i64 0))
  br label %165

165:                                              ; preds = %163, %139
  br label %166

166:                                              ; preds = %165
  %167 = load i32, i32* %6, align 4
  %168 = add nsw i32 %167, 1
  store i32 %168, i32* %6, align 4
  br label %133

169:                                              ; preds = %133
  br label %172

170:                                              ; preds = %126
  %171 = call i32 (i8*, ...) @printf(i8* getelementptr inbounds ([3 x i8], [3 x i8]* @.str.4, i64 0, i64 0))
  br label %172

172:                                              ; preds = %170, %169
  ret i32 0
}

declare dso_local i32 @__isoc99_scanf(i8*, ...) #1

declare dso_local i32 @getchar() #1

declare dso_local i32 @gets(...) #1

; Function Attrs: nounwind readonly
declare dso_local i64 @strlen(i8*) #2

declare dso_local i32 @printf(i8*, ...) #1


!llvm.module.flags = !{!0}
!llvm.ident = !{!1}

!0 = !{i32 1, !"wchar_size", i32 4}
!1 = !{!"clang version 10.0.0-4ubuntu1 "}
